; Function Attrs: mustprogress nounwind uwtable
define internal void @"_ZN4absl12lts_2024072222internal_any_invocable22LocalManagerNontrivialIZN9grpc_core13ClientChannel22ResetConnectionBackoffEvE3$_0EEvNS1_14FunctionToCallEPNS1_15TypeErasedStateES8_"(i1 noundef zeroext %0, ptr noundef captures(none) %1, ptr noundef writeonly captures(none) %2) #9 personality ptr @__gxx_personality_v0 {
  br i1 %0, label %5, label %.thread

.thread:                                          ; preds = %3
  store ptr null, ptr %2, align 8, !tbaa !219
  %4 = load ptr, ptr %1, align 8, !tbaa !219
  store ptr %4, ptr %2, align 8, !tbaa !219
  store ptr null, ptr %1, align 8, !tbaa !219
  br label %"_ZZN9grpc_core13ClientChannel22ResetConnectionBackoffEvEN3$_0D2Ev.exit"

5:                                                ; preds = %3
  %.val.pr = load ptr, ptr %1, align 8, !tbaa !219
  %.not.i.i = icmp eq ptr %.val.pr, null
  br i1 %.not.i.i, label %"_ZZN9grpc_core13ClientChannel22ResetConnectionBackoffEvEN3$_0D2Ev.exit", label %6

6:                                                ; preds = %5
  %7 = getelementptr inbounds nuw i8, ptr %.val.pr, i64 8
  %8 = atomicrmw add ptr %7, i64 -4294967295 acq_rel, align 8
  %.mask.i.i.i = and i64 %8, -4294967296
  %9 = icmp eq i64 %.mask.i.i.i, 4294967296
  br i1 %9, label %10, label %.noexc.i.i, !prof !26

10:                                               ; preds = %6
  %11 = load ptr, ptr %.val.pr, align 8, !tbaa !8
  %12 = getelementptr inbounds nuw i8, ptr %11, i64 16
  %13 = load ptr, ptr %12, align 8
  invoke void %13(ptr noundef nonnull align 8 dereferenceable(16) %.val.pr)
          to label %.noexc.i.i unwind label %20

.noexc.i.i:                                       ; preds = %10, %6
  %14 = atomicrmw sub ptr %7, i64 1 acq_rel, align 8
  %15 = icmp eq i64 %14, 1
  br i1 %15, label %16, label %"_ZZN9grpc_core13ClientChannel22ResetConnectionBackoffEvEN3$_0D2Ev.exit", !prof !26

16:                                               ; preds = %.noexc.i.i
  %17 = load ptr, ptr %.val.pr, align 8, !tbaa !8
  %18 = getelementptr inbounds nuw i8, ptr %17, i64 8
  %19 = load ptr, ptr %18, align 8
  tail call void %19(ptr noundef nonnull align 8 dereferenceable(16) %.val.pr) #42
  br label %"_ZZN9grpc_core13ClientChannel22ResetConnectionBackoffEvEN3$_0D2Ev.exit"

20:                                               ; preds = %10
  %21 = landingpad { ptr, i32 }
          catch ptr null
  %22 = extractvalue { ptr, i32 } %21, 0
  tail call void @__clang_call_terminate(ptr %22) #47
  unreachable

"_ZZN9grpc_core13ClientChannel22ResetConnectionBackoffEvEN3$_0D2Ev.exit": ; preds = %.thread, %5, %.noexc.i.i, %16
  ret void
}